target datalayout = "e-m:e-p270:32:32-p271:32:32-p272:64:64-i64:64-i128:128-f80:128-n8:16:32:64-S128"
target triple = "x86_64-pc-linux-gnu"

@.str.3 = private unnamed_addr constant [2 x i8] c"\0A\00", align 1
@.str.4 = private unnamed_addr constant [35 x i8] c"    equiv_opt [options] [command]\0A\00", align 1
@.str.5 = private unnamed_addr constant [78 x i8] c"This command uses temporal induction to check circuit equivalence before and\0A\00", align 1
@.str.6 = private unnamed_addr constant [29 x i8] c"after an optimization pass.\0A\00", align 1
@.str.7 = private unnamed_addr constant [34 x i8] c"    -run <from_label>:<to_label>\0A\00", align 1
@.str.8 = private unnamed_addr constant [72 x i8] c"        only run the commands between the labels (see below). an empty\0A\00", align 1
@.str.9 = private unnamed_addr constant [81 x i8] c"        from label is synonymous to the start of the command list, and empty to\0A\00", align 1
@.str.10 = private unnamed_addr constant [61 x i8] c"        label is synonymous to the end of the command list.\0A\00", align 1
@.str.11 = private unnamed_addr constant [21 x i8] c"    -map <filename>\0A\00", align 1
@.str.12 = private unnamed_addr constant [77 x i8] c"        expand the modules in this file before proving equivalence. this is\0A\00", align 1
@.str.13 = private unnamed_addr constant [63 x i8] c"        useful for handling architecture-specific primitives.\0A\00", align 1
@.str.14 = private unnamed_addr constant [23 x i8] c"    -blacklist <file>\0A\00", align 1
@.str.15 = private unnamed_addr constant [72 x i8] c"        Do not match cells or signals that match the names in the file\0A\00", align 1
@.str.16 = private unnamed_addr constant [33 x i8] c"        (passed to equiv_make).\0A\00", align 1
@.str.17 = private unnamed_addr constant [13 x i8] c"    -assert\0A\00", align 1
@.str.18 = private unnamed_addr constant [62 x i8] c"        produce an error if the circuits are not equivalent.\0A\00", align 1
@.str.19 = private unnamed_addr constant [17 x i8] c"    -multiclock\0A\00", align 1
@.str.20 = private unnamed_addr constant [54 x i8] c"        run clk2fflogic before equivalence checking.\0A\00", align 1
@.str.21 = private unnamed_addr constant [17 x i8] c"    -async2sync\0A\00", align 1
@.str.22 = private unnamed_addr constant [53 x i8] c"        run async2sync before equivalence checking.\0A\00", align 1
@.str.23 = private unnamed_addr constant [12 x i8] c"    -undef\0A\00", align 1
@.str.24 = private unnamed_addr constant [63 x i8] c"        enable modelling of undef states during equiv_induct.\0A\00", align 1
@.str.25 = private unnamed_addr constant [14 x i8] c"    -nocheck\0A\00", align 1
@.str.26 = private unnamed_addr constant [72 x i8] c"        disable running check before and after the command under test.\0A\00", align 1
@.str.27 = private unnamed_addr constant [67 x i8] c"The following commands are executed by this verification command:\0A\00", align 1

; Function Attrs: mustprogress uwtable
define internal void @_ZN12_GLOBAL__N_112EquivOptPass4helpEv(ptr noundef nonnull align 8 dereferenceable(285) %0) unnamed_addr #4 align 2 {
  %2 = alloca ptr, align 8
  store ptr %0, ptr %2, align 8
  %3 = load ptr, ptr %2, align 8
  call void (ptr, ...) @_ZN5Yosys3logEPKcz(ptr noundef @.str.3)
  call void (ptr, ...) @_ZN5Yosys3logEPKcz(ptr noundef @.str.4)
  call void (ptr, ...) @_ZN5Yosys3logEPKcz(ptr noundef @.str.3)
  call void (ptr, ...) @_ZN5Yosys3logEPKcz(ptr noundef @.str.5)
  call void (ptr, ...) @_ZN5Yosys3logEPKcz(ptr noundef @.str.6)
  call void (ptr, ...) @_ZN5Yosys3logEPKcz(ptr noundef @.str.3)
  call void (ptr, ...) @_ZN5Yosys3logEPKcz(ptr noundef @.str.7)
  call void (ptr, ...) @_ZN5Yosys3logEPKcz(ptr noundef @.str.8)
  call void (ptr, ...) @_ZN5Yosys3logEPKcz(ptr noundef @.str.9)
  call void (ptr, ...) @_ZN5Yosys3logEPKcz(ptr noundef @.str.10)
  call void (ptr, ...) @_ZN5Yosys3logEPKcz(ptr noundef @.str.3)
  call void (ptr, ...) @_ZN5Yosys3logEPKcz(ptr noundef @.str.11)
  call void (ptr, ...) @_ZN5Yosys3logEPKcz(ptr noundef @.str.12)
  call void (ptr, ...) @_ZN5Yosys3logEPKcz(ptr noundef @.str.13)
  call void (ptr, ...) @_ZN5Yosys3logEPKcz(ptr noundef @.str.3)
  call void (ptr, ...) @_ZN5Yosys3logEPKcz(ptr noundef @.str.14)
  call void (ptr, ...) @_ZN5Yosys3logEPKcz(ptr noundef @.str.15)
  call void (ptr, ...) @_ZN5Yosys3logEPKcz(ptr noundef @.str.16)
  call void (ptr, ...) @_ZN5Yosys3logEPKcz(ptr noundef @.str.3)
  call void (ptr, ...) @_ZN5Yosys3logEPKcz(ptr noundef @.str.17)
  call void (ptr, ...) @_ZN5Yosys3logEPKcz(ptr noundef @.str.18)
  call void (ptr, ...) @_ZN5Yosys3logEPKcz(ptr noundef @.str.3)
  call void (ptr, ...) @_ZN5Yosys3logEPKcz(ptr noundef @.str.19)
  call void (ptr, ...) @_ZN5Yosys3logEPKcz(ptr noundef @.str.20)
  call void (ptr, ...) @_ZN5Yosys3logEPKcz(ptr noundef @.str.3)
  call void (ptr, ...) @_ZN5Yosys3logEPKcz(ptr noundef @.str.21)
  call void (ptr, ...) @_ZN5Yosys3logEPKcz(ptr noundef @.str.22)
  call void (ptr, ...) @_ZN5Yosys3logEPKcz(ptr noundef @.str.3)
  call void (ptr, ...) @_ZN5Yosys3logEPKcz(ptr noundef @.str.23)
  call void (ptr, ...) @_ZN5Yosys3logEPKcz(ptr noundef @.str.24)
  call void (ptr, ...) @_ZN5Yosys3logEPKcz(ptr noundef @.str.3)
  call void (ptr, ...) @_ZN5Yosys3logEPKcz(ptr noundef @.str.25)
  call void (ptr, ...) @_ZN5Yosys3logEPKcz(ptr noundef @.str.26)
  call void (ptr, ...) @_ZN5Yosys3logEPKcz(ptr noundef @.str.3)
  call void (ptr, ...) @_ZN5Yosys3logEPKcz(ptr noundef @.str.27)
  call void @_ZN5Yosys10ScriptPass11help_scriptEv(ptr noundef nonnull align 8 dereferenceable(184) %3)
  call void (ptr, ...) @_ZN5Yosys3logEPKcz(ptr noundef @.str.3)
  ret void
}